; Function Attrs: mustprogress nounwind uwtable
define hidden noundef ptr @_ZN11PtrQueueSet24exchange_buffer_with_newER8PtrQueue(ptr nocapture noundef nonnull readonly align 8 dereferenceable(16) %0, ptr nocapture noundef nonnull align 8 dereferenceable(16) %1) local_unnamed_addr #4 align 2 {
  %3 = getelementptr inbounds i8, ptr %1, i64 8
  %4 = load ptr, ptr %3, align 8
  %.not = icmp eq ptr %4, null
  br i1 %.not, label %10, label %5

5:                                                ; preds = %2
  %6 = load i64, ptr %1, align 8
  %7 = lshr i64 %6, 3
  %8 = getelementptr inbounds i8, ptr %4, i64 -16
  %9 = trunc i64 %7 to i32
  store i32 %9, ptr %8, align 8
  br label %10

10:                                               ; preds = %5, %2
  %.0 = phi ptr [ %8, %5 ], [ null, %2 ]
  %11 = getelementptr inbounds i8, ptr %0, i64 8
  %12 = load ptr, ptr %11, align 8
  %13 = tail call noundef ptr @_ZN10BufferNode9Allocator8allocateEv(ptr noundef nonnull align 8 dereferenceable(592) %12) #8
  %14 = getelementptr inbounds i8, ptr %13, i64 16
  store ptr %14, ptr %3, align 8
  %15 = getelementptr inbounds i8, ptr %13, i64 4
  %16 = load i32, ptr %15, align 4
  %17 = zext i32 %16 to i64
  %18 = shl nuw nsw i64 %17, 3
  store i64 %18, ptr %1, align 8
  ret ptr %.0
}